; Function Attrs: nounwind uwtable
define internal range(i32 0, 2) i32 @keccak_init_params(ptr noundef %0, ptr noundef %1) #0 {
  %3 = tail call i32 @ossl_prov_is_running() #5
  %.not.i = icmp eq i32 %3, 0
  br i1 %.not.i, label %keccak_init.exit.thread, label %4

4:                                                ; preds = %2
  tail call void @ossl_sha3_reset(ptr noundef %0) #5
  %5 = tail call i32 @shake_set_ctx_params(ptr noundef %0, ptr noundef %1)
  br label %keccak_init.exit.thread

keccak_init.exit.thread:                          ; preds = %2, %4
  %6 = phi i32 [ %5, %4 ], [ 0, %2 ]
  ret i32 %6
}